; Function Attrs: mustprogress uwtable
define void @_ZN19SCTPAllAssocsDialog15getSelectedItemEv(ptr nocapture noundef nonnull align 8 dereferenceable(58) %0) local_unnamed_addr #0 align 2 personality ptr @__gxx_personality_v0 {
  %2 = alloca %class.QVariant, align 8
  %3 = alloca %class.QList.2, align 8
  %4 = getelementptr inbounds i8, ptr %0, i64 40
  %5 = load ptr, ptr %4, align 8
  %6 = getelementptr inbounds i8, ptr %5, i64 40
  %7 = load ptr, ptr %6, align 8
  tail call void @_ZN7QWidget10setEnabledEb(ptr noundef nonnull align 8 dereferenceable(40) %7, i1 noundef zeroext true)
  %8 = load ptr, ptr %4, align 8
  %9 = getelementptr inbounds i8, ptr %8, i64 32
  %10 = load ptr, ptr %9, align 8
  tail call void @_ZN7QWidget10setEnabledEb(ptr noundef nonnull align 8 dereferenceable(40) %10, i1 noundef zeroext true)
  %11 = load ptr, ptr %4, align 8
  %12 = getelementptr inbounds i8, ptr %11, i64 40
  %13 = load ptr, ptr %12, align 8
  tail call void @_ZN7QWidget8setFocusEN2Qt11FocusReasonE(ptr noundef nonnull align 8 dereferenceable(40) %13, i32 noundef 7)
  %14 = load ptr, ptr %4, align 8
  %15 = getelementptr inbounds i8, ptr %14, i64 8
  %16 = load ptr, ptr %15, align 8
  call void @_ZNK12QTableWidget13selectedItemsEv(ptr dead_on_unwind nonnull writable sret(%class.QList.2) align 8 %3, ptr noundef nonnull align 8 dereferenceable(40) %16)
  %17 = getelementptr inbounds i8, ptr %3, i64 8
  %18 = load ptr, ptr %17, align 8
  %19 = load ptr, ptr %18, align 8
  %20 = getelementptr inbounds i8, ptr %19, i64 40
  %21 = load ptr, ptr %20, align 8
  %.not.i = icmp eq ptr %21, null
  br i1 %.not.i, label %_ZNK16QTableWidgetItem3rowEv.exit, label %22

22:                                               ; preds = %1
  %23 = invoke noundef i32 @_ZNK12QTableWidget3rowEPK16QTableWidgetItem(ptr noundef nonnull align 8 dereferenceable(40) %21, ptr noundef nonnull %19)
          to label %_ZNK16QTableWidgetItem3rowEv.exit unwind label %39

_ZNK16QTableWidgetItem3rowEv.exit:                ; preds = %1, %22
  %24 = phi i32 [ -1, %1 ], [ %23, %22 ]
  %25 = invoke noundef ptr @_ZNK12QTableWidget4itemEii(ptr noundef nonnull align 8 dereferenceable(40) %16, i32 noundef %24, i32 noundef 0)
          to label %26 unwind label %39

26:                                               ; preds = %_ZNK16QTableWidgetItem3rowEv.exit
  %27 = load ptr, ptr %25, align 8
  %28 = getelementptr inbounds i8, ptr %27, i64 24
  %29 = load ptr, ptr %28, align 8
  invoke void %29(ptr dead_on_unwind nonnull writable sret(%class.QVariant) align 8 %2, ptr noundef nonnull align 8 dereferenceable(60) %25, i32 noundef 0)
          to label %30 unwind label %39

30:                                               ; preds = %26
  %31 = invoke noundef i32 @_ZNK8QVariant5toIntEPb(ptr noundef nonnull align 8 dereferenceable(32) %2, ptr noundef null)
          to label %32 unwind label %41

32:                                               ; preds = %30
  %33 = trunc i32 %31 to i16
  %34 = getelementptr inbounds i8, ptr %0, i64 56
  store i16 %33, ptr %34, align 8
  call void @_ZN8QVariantD1Ev(ptr noundef nonnull align 8 dereferenceable(32) %2) #9
  %35 = load ptr, ptr %3, align 8
  %.not.i.i.i = icmp eq ptr %35, null
  br i1 %.not.i.i.i, label %_ZN5QListIP16QTableWidgetItemED2Ev.exit, label %_ZN17QArrayDataPointerIP16QTableWidgetItemE5derefEv.exit.i.i

_ZN17QArrayDataPointerIP16QTableWidgetItemE5derefEv.exit.i.i: ; preds = %32
  %36 = atomicrmw sub ptr %35, i32 1 seq_cst, align 4
  %.not.i.i = icmp eq i32 %36, 1
  br i1 %.not.i.i, label %37, label %_ZN5QListIP16QTableWidgetItemED2Ev.exit

37:                                               ; preds = %_ZN17QArrayDataPointerIP16QTableWidgetItemE5derefEv.exit.i.i
  %38 = load ptr, ptr %3, align 8
  call void @_ZN10QArrayData10deallocateEPS_xx(ptr noundef %38, i64 noundef 8, i64 noundef 8) #9
  br label %_ZN5QListIP16QTableWidgetItemED2Ev.exit

_ZN5QListIP16QTableWidgetItemED2Ev.exit:          ; preds = %32, %_ZN17QArrayDataPointerIP16QTableWidgetItemE5derefEv.exit.i.i, %37
  ret void

39:                                               ; preds = %22, %26, %_ZNK16QTableWidgetItem3rowEv.exit
  %40 = landingpad { ptr, i32 }
          cleanup
  br label %43

41:                                               ; preds = %30
  %42 = landingpad { ptr, i32 }
          cleanup
  call void @_ZN8QVariantD1Ev(ptr noundef nonnull align 8 dereferenceable(32) %2) #9
  br label %43

43:                                               ; preds = %41, %39
  %.pn = phi { ptr, i32 } [ %42, %41 ], [ %40, %39 ]
  %44 = load ptr, ptr %3, align 8
  %.not.i.i.i4 = icmp eq ptr %44, null
  br i1 %.not.i.i.i4, label %_ZN5QListIP16QTableWidgetItemED2Ev.exit7, label %_ZN17QArrayDataPointerIP16QTableWidgetItemE5derefEv.exit.i.i5

_ZN17QArrayDataPointerIP16QTableWidgetItemE5derefEv.exit.i.i5: ; preds = %43
  %45 = atomicrmw sub ptr %44, i32 1 seq_cst, align 4
  %.not.i.i6 = icmp eq i32 %45, 1
  br i1 %.not.i.i6, label %46, label %_ZN5QListIP16QTableWidgetItemED2Ev.exit7

46:                                               ; preds = %_ZN17QArrayDataPointerIP16QTableWidgetItemE5derefEv.exit.i.i5
  %47 = load ptr, ptr %3, align 8
  call void @_ZN10QArrayData10deallocateEPS_xx(ptr noundef %47, i64 noundef 8, i64 noundef 8) #9
  br label %_ZN5QListIP16QTableWidgetItemED2Ev.exit7

_ZN5QListIP16QTableWidgetItemED2Ev.exit7:         ; preds = %43, %_ZN17QArrayDataPointerIP16QTableWidgetItemE5derefEv.exit.i.i5, %46
  resume { ptr, i32 } %.pn
}